target datalayout = "e-m:e-p270:32:32-p271:32:32-p272:64:64-i64:64-i128:128-f80:128-n8:16:32:64-S128"
target triple = "x86_64-pc-linux-gnu"

%struct.Vec_Ptr_t_ = type { i32, i32, ptr }
%struct.Abc_Obj_t_ = type { ptr, ptr, i32, i32, %struct.Vec_Int_t_, %struct.Vec_Int_t_, %union.anon, %union.anon.0 }
%struct.Vec_Int_t_ = type { i32, i32, ptr }
%union.anon = type { ptr }
%union.anon.0 = type { ptr }
%struct.Abc_Ntk_t_ = type { i32, i32, ptr, ptr, ptr, ptr, ptr, ptr, ptr, ptr, ptr, ptr, ptr, [11 x i32], i32, i32, i32, i32, ptr, i32, ptr, ptr, i32, i32, i32, double, i32, %struct.Vec_Int_t_, ptr, ptr, ptr, ptr, ptr, float, i32, ptr, ptr, ptr, ptr, ptr, ptr, ptr, ptr, ptr, ptr, ptr, ptr, ptr, ptr, ptr, ptr, ptr, ptr, ptr, ptr, ptr, ptr }

; Function Attrs: inlinehint nounwind uwtable
define internal ptr @Vec_PtrEntry(ptr noundef %0, i32 noundef %1) #3 {
  %3 = alloca ptr, align 8
  %4 = alloca i32, align 4
  store ptr %0, ptr %3, align 8, !tbaa !10
  store i32 %1, ptr %4, align 4, !tbaa !8
  %5 = load ptr, ptr %3, align 8, !tbaa !10
  %6 = getelementptr inbounds nuw %struct.Vec_Ptr_t_, ptr %5, i32 0, i32 2
  %7 = load ptr, ptr %6, align 8, !tbaa !14
  %8 = load i32, ptr %4, align 4, !tbaa !8
  %9 = sext i32 %8 to i64
  %10 = getelementptr inbounds ptr, ptr %7, i64 %9
  %11 = load ptr, ptr %10, align 8, !tbaa !20
  ret ptr %11
}

; Function Attrs: inlinehint nounwind uwtable
define internal i32 @Abc_LatchIsInit1(ptr noundef %0) #3 {
  %2 = alloca ptr, align 8
  store ptr %0, ptr %2, align 8, !tbaa !12
  %3 = load ptr, ptr %2, align 8, !tbaa !12
  %4 = getelementptr inbounds nuw %struct.Abc_Obj_t_, ptr %3, i32 0, i32 6
  %5 = load ptr, ptr %4, align 8, !tbaa !41
  %6 = icmp eq ptr %5, inttoptr (i64 2 to ptr)
  %7 = zext i1 %6 to i32
  ret i32 %7
}

; Function Attrs: inlinehint nounwind uwtable
define internal i32 @Abc_LatchIsInit0(ptr noundef %0) #3 {
  %2 = alloca ptr, align 8
  store ptr %0, ptr %2, align 8, !tbaa !12
  %3 = load ptr, ptr %2, align 8, !tbaa !12
  %4 = getelementptr inbounds nuw %struct.Abc_Obj_t_, ptr %3, i32 0, i32 6
  %5 = load ptr, ptr %4, align 8, !tbaa !41
  %6 = icmp eq ptr %5, inttoptr (i64 1 to ptr)
  %7 = zext i1 %6 to i32
  ret i32 %7
}

; Function Attrs: inlinehint nounwind uwtable
define internal i32 @Abc_ObjIsLatch(ptr noundef %0) #3 {
  %2 = alloca ptr, align 8
  store ptr %0, ptr %2, align 8, !tbaa !12
  %3 = load ptr, ptr %2, align 8, !tbaa !12
  %4 = getelementptr inbounds nuw %struct.Abc_Obj_t_, ptr %3, i32 0, i32 3
  %5 = load i32, ptr %4, align 4
  %6 = and i32 %5, 15
  %7 = icmp eq i32 %6, 8
  %8 = zext i1 %7 to i32
  ret i32 %8
}

; Function Attrs: inlinehint nounwind uwtable
define internal ptr @Abc_NtkBox(ptr noundef %0, i32 noundef %1) #3 {
  %3 = alloca ptr, align 8
  %4 = alloca i32, align 4
  store ptr %0, ptr %3, align 8, !tbaa !3
  store i32 %1, ptr %4, align 4, !tbaa !8
  %5 = load ptr, ptr %3, align 8, !tbaa !3
  %6 = getelementptr inbounds nuw %struct.Abc_Ntk_t_, ptr %5, i32 0, i32 11
  %7 = load ptr, ptr %6, align 8, !tbaa !23
  %8 = load i32, ptr %4, align 4, !tbaa !8
  %9 = call ptr @Vec_PtrEntry(ptr noundef %7, i32 noundef %8)
  ret ptr %9
}

; Function Attrs: inlinehint nounwind uwtable
define internal i32 @Vec_PtrSize(ptr noundef %0) #3 {
  %2 = alloca ptr, align 8
  store ptr %0, ptr %2, align 8, !tbaa !10
  %3 = load ptr, ptr %2, align 8, !tbaa !10
  %4 = getelementptr inbounds nuw %struct.Vec_Ptr_t_, ptr %3, i32 0, i32 1
  %5 = load i32, ptr %4, align 4, !tbaa !40
  ret i32 %5
}

; Function Attrs: inlinehint nounwind uwtable
define internal ptr @Abc_NtkPi(ptr noundef %0, i32 noundef %1) #3 {
  %3 = alloca ptr, align 8
  %4 = alloca i32, align 4
  store ptr %0, ptr %3, align 8, !tbaa !3
  store i32 %1, ptr %4, align 4, !tbaa !8
  %5 = load ptr, ptr %3, align 8, !tbaa !3
  %6 = getelementptr inbounds nuw %struct.Abc_Ntk_t_, ptr %5, i32 0, i32 6
  %7 = load ptr, ptr %6, align 8, !tbaa !39
  %8 = load i32, ptr %4, align 4, !tbaa !8
  %9 = call ptr @Vec_PtrEntry(ptr noundef %7, i32 noundef %8)
  ret ptr %9
}

; Function Attrs: inlinehint nounwind uwtable
define internal i32 @Abc_NtkPiNum(ptr noundef %0) #3 {
  %2 = alloca ptr, align 8
  store ptr %0, ptr %2, align 8, !tbaa !3
  %3 = load ptr, ptr %2, align 8, !tbaa !3
  %4 = getelementptr inbounds nuw %struct.Abc_Ntk_t_, ptr %3, i32 0, i32 6
  %5 = load ptr, ptr %4, align 8, !tbaa !39
  %6 = call i32 @Vec_PtrSize(ptr noundef %5)
  ret i32 %6
}

; Function Attrs: inlinehint nounwind uwtable
define internal i32 @Abc_NtkObjNumMax(ptr noundef %0) #3 {
  %2 = alloca ptr, align 8
  store ptr %0, ptr %2, align 8, !tbaa !3
  %3 = load ptr, ptr %2, align 8, !tbaa !3
  %4 = getelementptr inbounds nuw %struct.Abc_Ntk_t_, ptr %3, i32 0, i32 5
  %5 = load ptr, ptr %4, align 8, !tbaa !38
  %6 = call i32 @Vec_PtrSize(ptr noundef %5)
  ret i32 %6
}

; Function Attrs: nounwind uwtable
define ptr @Sim_SimulateSeqModel(ptr noundef %0, i32 noundef %1, ptr noundef %2) #0 {
  %4 = alloca ptr, align 8
  %5 = alloca i32, align 4
  %6 = alloca ptr, align 8
  %7 = alloca ptr, align 8
  %8 = alloca ptr, align 8
  %9 = alloca ptr, align 8
  %10 = alloca i32, align 4
  %11 = alloca i32, align 4
  store ptr %0, ptr %4, align 8, !tbaa !3
  store i32 %1, ptr %5, align 4, !tbaa !8
  store ptr %2, ptr %6, align 8, !tbaa !45
  call void @llvm.lifetime.start.p0(i64 8, ptr %7) #5
  call void @llvm.lifetime.start.p0(i64 8, ptr %8) #5
  call void @llvm.lifetime.start.p0(i64 8, ptr %9) #5
  call void @llvm.lifetime.start.p0(i64 4, ptr %10) #5
  call void @llvm.lifetime.start.p0(i64 4, ptr %11) #5
  %12 = load ptr, ptr %4, align 8, !tbaa !3
  %13 = call i32 @Abc_NtkObjNumMax(ptr noundef %12)
  %14 = load i32, ptr %5, align 4, !tbaa !8
  %15 = call ptr @Sim_UtilInfoAlloc(i32 noundef %13, i32 noundef %14, i32 noundef 0)
  store ptr %15, ptr %7, align 8, !tbaa !10
  %16 = load ptr, ptr %4, align 8, !tbaa !3
  %17 = call ptr @Abc_AigConst1(ptr noundef %16)
  store ptr %17, ptr %8, align 8, !tbaa !12
  %18 = load ptr, ptr %7, align 8, !tbaa !10
  %19 = getelementptr inbounds nuw %struct.Vec_Ptr_t_, ptr %18, i32 0, i32 2
  %20 = load ptr, ptr %19, align 8, !tbaa !14
  %21 = load ptr, ptr %8, align 8, !tbaa !12
  %22 = getelementptr inbounds nuw %struct.Abc_Obj_t_, ptr %21, i32 0, i32 2
  %23 = load i32, ptr %22, align 8, !tbaa !16
  %24 = sext i32 %23 to i64
  %25 = getelementptr inbounds ptr, ptr %20, i64 %24
  %26 = load ptr, ptr %25, align 8, !tbaa !20
  %27 = load i32, ptr %5, align 4, !tbaa !8
  call void @Sim_UtilSetConst(ptr noundef %26, i32 noundef %27, i32 noundef 1)
  store i32 0, ptr %10, align 4, !tbaa !8
  br label %28

28:                                               ; preds = %74, %3
  %29 = load i32, ptr %10, align 4, !tbaa !8
  %30 = load ptr, ptr %4, align 8, !tbaa !3
  %31 = call i32 @Abc_NtkPiNum(ptr noundef %30)
  %32 = icmp slt i32 %29, %31
  br i1 %32, label %33, label %37

33:                                               ; preds = %28
  %34 = load ptr, ptr %4, align 8, !tbaa !3
  %35 = load i32, ptr %10, align 4, !tbaa !8
  %36 = call ptr @Abc_NtkPi(ptr noundef %34, i32 noundef %35)
  store ptr %36, ptr %8, align 8, !tbaa !12
  br label %37

37:                                               ; preds = %33, %28
  %38 = phi i1 [ false, %28 ], [ true, %33 ]
  br i1 %38, label %39, label %77

39:                                               ; preds = %37
  %40 = load ptr, ptr %7, align 8, !tbaa !10
  %41 = getelementptr inbounds nuw %struct.Vec_Ptr_t_, ptr %40, i32 0, i32 2
  %42 = load ptr, ptr %41, align 8, !tbaa !14
  %43 = load ptr, ptr %8, align 8, !tbaa !12
  %44 = getelementptr inbounds nuw %struct.Abc_Obj_t_, ptr %43, i32 0, i32 2
  %45 = load i32, ptr %44, align 8, !tbaa !16
  %46 = sext i32 %45 to i64
  %47 = getelementptr inbounds ptr, ptr %42, i64 %46
  %48 = load ptr, ptr %47, align 8, !tbaa !20
  store ptr %48, ptr %9, align 8, !tbaa !45
  store i32 0, ptr %11, align 4, !tbaa !8
  br label %49

49:                                               ; preds = %70, %39
  %50 = load i32, ptr %11, align 4, !tbaa !8
  %51 = load i32, ptr %5, align 4, !tbaa !8
  %52 = icmp slt i32 %50, %51
  br i1 %52, label %53, label %73

53:                                               ; preds = %49
  %54 = load ptr, ptr %6, align 8, !tbaa !45
  %55 = load i32, ptr %11, align 4, !tbaa !8
  %56 = load ptr, ptr %4, align 8, !tbaa !3
  %57 = call i32 @Abc_NtkPiNum(ptr noundef %56)
  %58 = mul nsw i32 %55, %57
  %59 = load i32, ptr %10, align 4, !tbaa !8
  %60 = add nsw i32 %58, %59
  %61 = sext i32 %60 to i64
  %62 = getelementptr inbounds i32, ptr %54, i64 %61
  %63 = load i32, ptr %62, align 4, !tbaa !8
  %64 = icmp ne i32 %63, 0
  %65 = select i1 %64, i32 -1, i32 0
  %66 = load ptr, ptr %9, align 8, !tbaa !45
  %67 = load i32, ptr %11, align 4, !tbaa !8
  %68 = sext i32 %67 to i64
  %69 = getelementptr inbounds i32, ptr %66, i64 %68
  store i32 %65, ptr %69, align 4, !tbaa !8
  br label %70

70:                                               ; preds = %53
  %71 = load i32, ptr %11, align 4, !tbaa !8
  %72 = add nsw i32 %71, 1
  store i32 %72, ptr %11, align 4, !tbaa !8
  br label %49, !llvm.loop !46

73:                                               ; preds = %49
  br label %74

74:                                               ; preds = %73
  %75 = load i32, ptr %10, align 4, !tbaa !8
  %76 = add nsw i32 %75, 1
  store i32 %76, ptr %10, align 4, !tbaa !8
  br label %28, !llvm.loop !47

77:                                               ; preds = %37
  store i32 0, ptr %10, align 4, !tbaa !8
  br label %78

78:                                               ; preds = %132, %77
  %79 = load i32, ptr %10, align 4, !tbaa !8
  %80 = load ptr, ptr %4, align 8, !tbaa !3
  %81 = getelementptr inbounds nuw %struct.Abc_Ntk_t_, ptr %80, i32 0, i32 11
  %82 = load ptr, ptr %81, align 8, !tbaa !23
  %83 = call i32 @Vec_PtrSize(ptr noundef %82)
  %84 = icmp slt i32 %79, %83
  br i1 %84, label %85, label %89

85:                                               ; preds = %78
  %86 = load ptr, ptr %4, align 8, !tbaa !3
  %87 = load i32, ptr %10, align 4, !tbaa !8
  %88 = call ptr @Abc_NtkBox(ptr noundef %86, i32 noundef %87)
  store ptr %88, ptr %8, align 8, !tbaa !12
  br label %89

89:                                               ; preds = %85, %78
  %90 = phi i1 [ false, %78 ], [ true, %85 ]
  br i1 %90, label %91, label %135

91:                                               ; preds = %89
  %92 = load ptr, ptr %8, align 8, !tbaa !12
  %93 = call i32 @Abc_ObjIsLatch(ptr noundef %92)
  %94 = icmp ne i32 %93, 0
  br i1 %94, label %96, label %95

95:                                               ; preds = %91
  br label %131

96:                                               ; preds = %91
  %97 = load ptr, ptr %7, align 8, !tbaa !10
  %98 = getelementptr inbounds nuw %struct.Vec_Ptr_t_, ptr %97, i32 0, i32 2
  %99 = load ptr, ptr %98, align 8, !tbaa !14
  %100 = load ptr, ptr %8, align 8, !tbaa !12
  %101 = getelementptr inbounds nuw %struct.Abc_Obj_t_, ptr %100, i32 0, i32 2
  %102 = load i32, ptr %101, align 8, !tbaa !16
  %103 = sext i32 %102 to i64
  %104 = getelementptr inbounds ptr, ptr %99, i64 %103
  %105 = load ptr, ptr %104, align 8, !tbaa !20
  store ptr %105, ptr %9, align 8, !tbaa !45
  %106 = load ptr, ptr %8, align 8, !tbaa !12
  %107 = call i32 @Abc_LatchIsInit0(ptr noundef %106)
  %108 = icmp ne i32 %107, 0
  br i1 %108, label %109, label %112

109:                                              ; preds = %96
  %110 = load ptr, ptr %9, align 8, !tbaa !45
  %111 = getelementptr inbounds i32, ptr %110, i64 0
  store i32 0, ptr %111, align 4, !tbaa !8
  br label %130

112:                                              ; preds = %96
  %113 = load ptr, ptr %8, align 8, !tbaa !12
  %114 = call i32 @Abc_LatchIsInit1(ptr noundef %113)
  %115 = icmp ne i32 %114, 0
  br i1 %115, label %116, label %119

116:                                              ; preds = %112
  %117 = load ptr, ptr %9, align 8, !tbaa !45
  %118 = getelementptr inbounds i32, ptr %117, i64 0
  store i32 -1, ptr %118, align 4, !tbaa !8
  br label %129

119:                                              ; preds = %112
  %120 = call i32 @rand() #5
  %121 = shl i32 %120, 24
  %122 = call i32 @rand() #5
  %123 = shl i32 %122, 12
  %124 = xor i32 %121, %123
  %125 = call i32 @rand() #5
  %126 = xor i32 %124, %125
  %127 = load ptr, ptr %9, align 8, !tbaa !45
  %128 = getelementptr inbounds i32, ptr %127, i64 0
  store i32 %126, ptr %128, align 4, !tbaa !8
  br label %129

129:                                              ; preds = %119, %116
  br label %130

130:                                              ; preds = %129, %109
  br label %131

131:                                              ; preds = %130, %95
  br label %132

132:                                              ; preds = %131
  %133 = load i32, ptr %10, align 4, !tbaa !8
  %134 = add nsw i32 %133, 1
  store i32 %134, ptr %10, align 4, !tbaa !8
  br label %78, !llvm.loop !48

135:                                              ; preds = %89
  store i32 0, ptr %10, align 4, !tbaa !8
  br label %136

136:                                              ; preds = %149, %135
  %137 = load i32, ptr %10, align 4, !tbaa !8
  %138 = load i32, ptr %5, align 4, !tbaa !8
  %139 = icmp slt i32 %137, %138
  br i1 %139, label %140, label %152

140:                                              ; preds = %136
  %141 = load ptr, ptr %7, align 8, !tbaa !10
  %142 = load ptr, ptr %4, align 8, !tbaa !3
  %143 = load i32, ptr %10, align 4, !tbaa !8
  %144 = load i32, ptr %10, align 4, !tbaa !8
  %145 = load i32, ptr %5, align 4, !tbaa !8
  %146 = sub nsw i32 %145, 1
  %147 = icmp slt i32 %144, %146
  %148 = zext i1 %147 to i32
  call void @Sim_SimulateSeqFrame(ptr noundef %141, ptr noundef %142, i32 noundef %143, i32 noundef 1, i32 noundef %148)
  br label %149

149:                                              ; preds = %140
  %150 = load i32, ptr %10, align 4, !tbaa !8
  %151 = add nsw i32 %150, 1
  store i32 %151, ptr %10, align 4, !tbaa !8
  br label %136, !llvm.loop !49

152:                                              ; preds = %136
  %153 = load ptr, ptr %7, align 8, !tbaa !10
  call void @llvm.lifetime.end.p0(i64 4, ptr %11) #5
  call void @llvm.lifetime.end.p0(i64 4, ptr %10) #5
  call void @llvm.lifetime.end.p0(i64 8, ptr %9) #5
  call void @llvm.lifetime.end.p0(i64 8, ptr %8) #5
  call void @llvm.lifetime.end.p0(i64 8, ptr %7) #5
  ret ptr %153
}