; Function Attrs: nounwind uwtable
define ptr @Sim_SimulateSeqModel(ptr noundef %0, i32 noundef %1, ptr noundef readonly captures(none) %2) local_unnamed_addr #0 {
  %4 = getelementptr i8, ptr %0, i64 32
  %.val50 = load ptr, ptr %4, align 8, !tbaa !3
  %5 = getelementptr i8, ptr %.val50, i64 4
  %.val50.val = load i32, ptr %5, align 4, !tbaa !24
  %6 = tail call ptr @Sim_UtilInfoAlloc(i32 noundef %.val50.val, i32 noundef %1, i32 noundef 0) #3
  %7 = tail call ptr @Abc_AigConst1(ptr noundef %0) #3
  %8 = getelementptr inbounds nuw i8, ptr %6, i64 8
  %9 = load ptr, ptr %8, align 8, !tbaa !26
  %10 = getelementptr inbounds nuw i8, ptr %7, i64 16
  %11 = load i32, ptr %10, align 8, !tbaa !27
  %12 = sext i32 %11 to i64
  %13 = getelementptr inbounds ptr, ptr %9, i64 %12
  %14 = load ptr, ptr %13, align 8, !tbaa !30
  tail call void @Sim_UtilSetConst(ptr noundef %14, i32 noundef %1, i32 noundef 1) #3
  %15 = getelementptr i8, ptr %0, i64 40
  %.val52 = load ptr, ptr %15, align 8, !tbaa !31
  %16 = getelementptr i8, ptr %.val52, i64 4
  %.val52.val61 = load i32, ptr %16, align 4, !tbaa !24
  %17 = icmp sgt i32 %.val52.val61, 0
  br i1 %17, label %.lr.ph64, label %.critedge.preheader

.lr.ph64:                                         ; preds = %3
  %18 = getelementptr i8, ptr %.val52, i64 8
  %.val53.val = load ptr, ptr %18, align 8, !tbaa !26
  %19 = load ptr, ptr %8, align 8, !tbaa !26
  %20 = icmp sgt i32 %1, 0
  br i1 %20, label %.lr.ph.us.preheader, label %.critedge.preheader

.lr.ph.us.preheader:                              ; preds = %.lr.ph64
  %wide.trip.count = zext nneg i32 %1 to i64
  br label %.lr.ph.us

.lr.ph.us:                                        ; preds = %.lr.ph.us.preheader, %._crit_edge.us
  %indvars.iv71 = phi i64 [ 0, %.lr.ph.us.preheader ], [ %indvars.iv.next72, %._crit_edge.us ]
  %21 = getelementptr inbounds nuw ptr, ptr %.val53.val, i64 %indvars.iv71
  %22 = load ptr, ptr %21, align 8, !tbaa !30
  %23 = getelementptr inbounds nuw i8, ptr %22, i64 16
  %24 = load i32, ptr %23, align 8, !tbaa !27
  %25 = sext i32 %24 to i64
  %26 = getelementptr inbounds ptr, ptr %19, i64 %25
  %27 = load ptr, ptr %26, align 8, !tbaa !30
  %28 = trunc nuw nsw i64 %indvars.iv71 to i32
  br label %29

29:                                               ; preds = %.lr.ph.us, %29
  %indvars.iv = phi i64 [ 0, %.lr.ph.us ], [ %indvars.iv.next, %29 ]
  %.val51.val.us = load i32, ptr %16, align 4, !tbaa !24
  %30 = trunc nuw nsw i64 %indvars.iv to i32
  %31 = mul nsw i32 %.val51.val.us, %30
  %32 = add nsw i32 %31, %28
  %33 = sext i32 %32 to i64
  %34 = getelementptr inbounds i32, ptr %2, i64 %33
  %35 = load i32, ptr %34, align 4, !tbaa !42
  %.not49.us = icmp ne i32 %35, 0
  %36 = sext i1 %.not49.us to i32
  %37 = getelementptr inbounds nuw i32, ptr %27, i64 %indvars.iv
  store i32 %36, ptr %37, align 4, !tbaa !42
  %indvars.iv.next = add nuw nsw i64 %indvars.iv, 1
  %exitcond.not = icmp eq i64 %indvars.iv.next, %wide.trip.count
  br i1 %exitcond.not, label %._crit_edge.us, label %29, !llvm.loop !43

._crit_edge.us:                                   ; preds = %29
  %indvars.iv.next72 = add nuw nsw i64 %indvars.iv71, 1
  %.val52.val.us = load i32, ptr %16, align 4, !tbaa !24
  %38 = sext i32 %.val52.val.us to i64
  %39 = icmp slt i64 %indvars.iv.next72, %38
  br i1 %39, label %.lr.ph.us, label %.critedge.preheader, !llvm.loop !44

.critedge.preheader:                              ; preds = %._crit_edge.us, %.lr.ph64, %3
  %40 = getelementptr inbounds nuw i8, ptr %0, i64 80
  %41 = load ptr, ptr %40, align 8, !tbaa !32
  %42 = getelementptr i8, ptr %41, i64 4
  %.val65 = load i32, ptr %42, align 4, !tbaa !24
  %43 = icmp sgt i32 %.val65, 0
  br i1 %43, label %.lr.ph, label %.critedge2.preheader

.critedge2.preheader:                             ; preds = %.critedge, %.critedge.preheader
  %44 = icmp sgt i32 %1, 0
  br i1 %44, label %.lr.ph68, label %.critedge2._crit_edge

.lr.ph68:                                         ; preds = %.critedge2.preheader
  %45 = add nsw i32 %1, -1
  br label %.critedge2

.lr.ph:                                           ; preds = %.critedge.preheader, %.critedge
  %46 = phi ptr [ %70, %.critedge ], [ %41, %.critedge.preheader ]
  %indvars.iv74 = phi i64 [ %indvars.iv.next75, %.critedge ], [ 0, %.critedge.preheader ]
  %47 = getelementptr i8, ptr %46, i64 8
  %.val54.val = load ptr, ptr %47, align 8, !tbaa !26
  %48 = getelementptr inbounds nuw ptr, ptr %.val54.val, i64 %indvars.iv74
  %49 = load ptr, ptr %48, align 8, !tbaa !30
  %50 = getelementptr i8, ptr %49, i64 20
  %.val55 = load i32, ptr %50, align 4
  %51 = and i32 %.val55, 15
  %.not = icmp eq i32 %51, 8
  br i1 %.not, label %52, label %.critedge

52:                                               ; preds = %.lr.ph
  %53 = load ptr, ptr %8, align 8, !tbaa !26
  %54 = getelementptr inbounds nuw i8, ptr %49, i64 16
  %55 = load i32, ptr %54, align 8, !tbaa !27
  %56 = sext i32 %55 to i64
  %57 = getelementptr inbounds ptr, ptr %53, i64 %56
  %58 = load ptr, ptr %57, align 8, !tbaa !30
  %59 = getelementptr i8, ptr %49, i64 56
  %.val56 = load ptr, ptr %59, align 8, !tbaa !35
  %magicptr = ptrtoint ptr %.val56 to i64
  switch i64 %magicptr, label %62 [
    i64 1, label %60
    i64 2, label %61
  ]

60:                                               ; preds = %52
  store i32 0, ptr %58, align 4, !tbaa !42
  br label %.critedge

61:                                               ; preds = %52
  store i32 -1, ptr %58, align 4, !tbaa !42
  br label %.critedge

62:                                               ; preds = %52
  %63 = tail call i32 @rand() #3
  %64 = shl i32 %63, 24
  %65 = tail call i32 @rand() #3
  %66 = shl i32 %65, 12
  %67 = xor i32 %66, %64
  %68 = tail call i32 @rand() #3
  %69 = xor i32 %67, %68
  store i32 %69, ptr %58, align 4, !tbaa !42
  %.pre = load ptr, ptr %40, align 8, !tbaa !32
  br label %.critedge

.critedge:                                        ; preds = %.lr.ph, %61, %62, %60
  %70 = phi ptr [ %46, %.lr.ph ], [ %46, %61 ], [ %.pre, %62 ], [ %46, %60 ]
  %indvars.iv.next75 = add nuw nsw i64 %indvars.iv74, 1
  %71 = getelementptr i8, ptr %70, i64 4
  %.val = load i32, ptr %71, align 4, !tbaa !24
  %72 = sext i32 %.val to i64
  %73 = icmp slt i64 %indvars.iv.next75, %72
  br i1 %73, label %.lr.ph, label %.critedge2.preheader, !llvm.loop !45

.critedge2:                                       ; preds = %.lr.ph68, %.critedge2
  %.267 = phi i32 [ 0, %.lr.ph68 ], [ %76, %.critedge2 ]
  %74 = icmp slt i32 %.267, %45
  %75 = zext i1 %74 to i32
  tail call fastcc void @Sim_SimulateSeqFrame(ptr noundef %6, ptr noundef %0, i32 noundef %.267, i32 noundef 1, i32 noundef %75)
  %76 = add nuw nsw i32 %.267, 1
  %exitcond77.not = icmp eq i32 %76, %1
  br i1 %exitcond77.not, label %.critedge2._crit_edge, label %.critedge2, !llvm.loop !46

.critedge2._crit_edge:                            ; preds = %.critedge2, %.critedge2.preheader
  ret ptr %6
}